Certificate:
    Data:
        Version: 3 (0x2)
        Serial Number:
            07:ce:40:f3:c1:e0:71:a9:4e:52:28:65:fd:c6:27:6f:8b:3e:2c:8f
        Signature Algorithm: sha256WithRSAEncryption
        Issuer: CN = testuser
        Validity
            Not Before: Dec  8 05:22:36 2022 GMT
            Not After : Dec  8 05:22:36 2023 GMT
        Subject: CN = testuser
        Subject Public Key Info:
            Public Key Algorithm: rsaEncryption
                Public-Key: (2048 bit)
                Modulus:
                    00:a9:e5:64:bd:66:0a:d1:0a:45:99:a8:3e:a8:6e:
                    1e:b1:fe:4a:79:b7:4a:29:2b:dc:6a:b0:4a:c8:ef:
                    40:26:39:e5:ab:20:d3:2e:7d:4d:df:2a:c7:a2:29:
                    79:da:f3:e1:4d:ba:bb:46:6a:62:48:61:44:54:32:
                    20:c7:89:3d:db:24:67:3d:63:af:fb:71:55:8e:1f:
                    bd:fb:d8:3e:34:4a:f3:2f:de:82:06:83:6e:d6:63:
                    72:d9:c6:f6:a1:3d:96:64:33:94:13:25:de:11:4d:
                    dd:1a:89:34:46:5f:a5:2f:c2:5d:5e:ea:98:bd:53:
                    9d:ca:92:7e:d2:7d:b5:b8:25:51:4b:bf:7d:2f:5d:
                    b9:14:d4:8c:5c:84:3a:25:3c:a1:fb:98:f8:c9:47:
                    f2:77:30:16:8c:67:17:7b:41:6c:b4:a2:25:e0:70:
                    19:48:0f:98:7c:08:f9:76:0e:a5:ae:42:95:52:71:
                    ef:05:ce:58:03:85:51:24:67:08:f4:7f:36:16:d6:
                    1d:86:93:43:aa:93:52:6f:8f:ba:25:56:4d:22:62:
                    b0:6f:9e:fd:44:ad:0d:07:d7:69:95:b4:12:5d:a9:
                    0e:d2:d5:fd:b5:0d:f8:8d:42:ab:17:4d:d8:5a:cc:
                    1c:d8:10:55:13:fb:f9:c9:b0:bf:d2:09:5c:4a:85:
                    f0:89
                Exponent: 65537 (0x10001)
        X509v3 extensions:
            X509v3 Subject Key Identifier: 
                BA:FB:48:A0:99:6B:EB:D7:6B:8F:B2:8C:4D:E4:B1:37:2B:33:8D:1A
            X509v3 Authority Key Identifier: 
                BA:FB:48:A0:99:6B:EB:D7:6B:8F:B2:8C:4D:E4:B1:37:2B:33:8D:1A
            X509v3 Basic Constraints: critical
                CA:TRUE
    Signature Algorithm: sha256WithRSAEncryption
    Signature Value:
        20:9f:57:9c:1d:1f:a2:95:94:f8:65:cf:cd:1f:b1:99:9f:d9:
        12:51:4d:0f:c7:fb:40:74:64:97:0f:e2:4d:6f:ed:23:bd:5c:
        88:8a:52:17:9e:31:a4:78:37:e5:89:19:14:e9:8e:a4:cc:a4:
        9a:3c:b2:e4:b8:ec:ef:51:3b:fb:b1:06:f6:c8:ef:44:cc:5c:
        a7:8f:35:8d:8d:ed:29:13:f8:91:71:e5:05:28:f0:db:07:ba:
        4d:9d:ef:7a:f1:16:2a:71:2f:4a:46:df:19:15:18:4e:3e:8c:
        e7:19:b1:0c:e9:9f:7d:99:ab:8b:34:ac:cb:e4:93:ba:1d:db:
        56:d0:ed:43:17:ec:2e:9c:c3:77:ff:90:2a:96:28:e7:ef:be:
        9e:1f:34:c4:9b:d9:1e:d5:95:39:f6:2d:d2:1d:3f:b6:3e:5d:
        c2:d5:76:64:8a:6d:1f:7d:9c:68:2d:ec:e3:54:8d:3f:fb:75:
        3f:b0:6c:0a:d7:46:03:94:6b:32:52:bb:ad:d7:4d:93:03:ef:
        fc:07:a0:f7:76:1d:f2:12:45:22:44:fd:5f:df:c0:27:a3:55:
        ce:be:5a:e4:87:35:9b:14:09:ca:8c:44:79:47:f5:6b:6b:69:
        93:d9:84:05:a9:48:80:e9:00:02:03:b7:4e:c1:2a:d7:5b:e1:
        db:dc:c9:0c
-----BEGIN CERTIFICATE-----
MIIDBzCCAe+gAwIBAgIUB85A88HgcalOUihl/cYnb4s+LI8wDQYJKoZIhvcNAQEL
BQAwEzERMA8GA1UEAwwIdGVzdHVzZXIwHhcNMjIxMjA4MDUyMjM2WhcNMjMxMjA4
MDUyMjM2WjATMREwDwYDVQQDDAh0ZXN0dXNlcjCCASIwDQYJKoZIhvcNAQEBBQAD
ggEPADCCAQoCggEBAKnlZL1mCtEKRZmoPqhuHrH+Snm3Sikr3GqwSsjvQCY55asg
0y59Td8qx6Ipedrz4U26u0ZqYkhhRFQyIMeJPdskZz1jr/txVY4fvfvYPjRK8y/e
ggaDbtZjctnG9qE9lmQzlBMl3hFN3RqJNEZfpS/CXV7qmL1TncqSftJ9tbglUUu/
fS9duRTUjFyEOiU8ofuY+MlH8ncwFoxnF3tBbLSiJeBwGUgPmHwI+XYOpa5ClVJx
7wXOWAOFUSRnCPR/NhbWHYaTQ6qTUm+PuiVWTSJisG+e/UStDQfXaZW0El2pDtLV
/bUN+I1CqxdN2FrMHNgQVRP7+cmwv9IJXEqF8IkCAwEAAaNTMFEwHQYDVR0OBBYE
FLr7SKCZa+vXa4+yjE3ksTcrM40aMB8GA1UdIwQYMBaAFLr7SKCZa+vXa4+yjE3k
sTcrM40aMA8GA1UdEwEB/wQFMAMBAf8wDQYJKoZIhvcNAQELBQADggEBACCfV5wd
H6KVlPhlz80fsZmf2RJRTQ/H+0B0ZJcP4k1v7SO9XIiKUheeMaR4N+WJGRTpjqTM
pJo8suS47O9RO/uxBvbI70TMXKePNY2N7SkT+JFx5QUo8NsHuk2d73rxFipxL0pG
3xkVGE4+jOcZsQzpn32Zq4s0rMvkk7od21bQ7UMX7C6cw3f/kCqWKOfvvp4fNMSb
2R7VlTn2LdIdP7Y+XcLVdmSKbR99nGgt7ONUjT/7dT+wbArXRgOUazJSu63XTZMD
7/wHoPd2HfISRSJE/V/fwCejVc6+WuSHNZsUCcqMRHlH9WtraZPZhAWpSIDpAAID
t07BKtdb4dvcyQw=
-----END CERTIFICATE-----
