Certificate:
    Data:
        Version: 3 (0x2)
        Serial Number:
            4a:2b:81:01:4e:66:3b:cf:c8:70:5f:f9:8e:bf:26:33:2e:e5:7b:73
        Signature Algorithm: sha256WithRSAEncryption
        Issuer: CN = postgres.temp.jr
        Validity
            Not Before: Dec  7 03:33:53 2022 GMT
            Not After : Dec  7 03:33:53 2023 GMT
        Subject: CN = postgres.temp.jr
        Subject Public Key Info:
            Public Key Algorithm: rsaEncryption
                Public-Key: (2048 bit)
                Modulus:
                    00:c2:ed:f2:b6:35:5f:e6:ab:44:99:eb:ad:a9:91:
                    b8:b7:3c:a8:40:2f:12:b8:3e:69:13:ee:7e:de:16:
                    30:f5:df:40:93:bb:98:a6:80:70:4a:25:49:36:53:
                    89:d7:9b:b1:29:d4:89:ce:3d:8e:37:17:d7:28:1b:
                    7c:e2:a7:37:16:cd:e7:24:fc:39:6d:5e:fe:4e:4e:
                    fe:55:54:8c:53:c0:ce:91:5f:e1:a5:b3:1d:05:82:
                    f0:3a:30:ca:e1:85:d5:7d:fe:cb:46:4d:14:ec:79:
                    62:6c:dd:85:5c:3c:a6:11:54:7f:fa:e4:d5:13:7a:
                    00:3c:a1:e9:4b:dd:95:47:b9:67:d2:3d:a1:d6:3f:
                    36:5b:c8:1c:7a:46:0a:f2:b9:bd:c7:2d:35:ed:ed:
                    04:80:11:db:0d:d1:fb:69:9a:2e:9e:ec:8a:86:45:
                    1d:32:b6:c6:0e:ed:f8:6a:62:c0:c8:ab:fd:f6:16:
                    ed:fd:5f:0c:cc:e4:00:6c:0d:55:be:df:1c:73:73:
                    7f:22:04:7c:c6:56:ce:5c:2a:60:9c:1b:38:bd:56:
                    a1:44:a2:f1:54:2f:1b:d7:3b:91:a8:c7:9b:fd:6b:
                    d8:2f:57:5a:2e:6b:f1:82:2f:8d:44:34:8b:f8:7a:
                    cd:30:4e:6c:f5:af:e5:ac:c2:fd:8a:cd:4f:84:9c:
                    db:85
                Exponent: 65537 (0x10001)
        X509v3 extensions:
            X509v3 Subject Key Identifier: 
                B3:AA:8B:9A:8F:74:32:BF:7B:A8:D5:02:13:EE:D7:CD:74:43:BF:C1
            X509v3 Authority Key Identifier: 
                B3:AA:8B:9A:8F:74:32:BF:7B:A8:D5:02:13:EE:D7:CD:74:43:BF:C1
            X509v3 Basic Constraints: critical
                CA:TRUE
    Signature Algorithm: sha256WithRSAEncryption
    Signature Value:
        b2:ff:26:ac:61:41:1d:fd:a5:1c:39:c5:eb:60:55:74:ee:4b:
        5e:88:b9:9c:4c:8f:b0:fb:3d:30:50:b2:ad:98:08:61:56:31:
        e1:95:8d:9e:3e:4f:6f:c8:09:07:0b:60:65:ad:28:96:45:4c:
        f6:95:8b:5f:a3:3d:4b:9e:9e:88:3e:0d:8e:6a:b2:00:59:43:
        ef:7b:f7:de:5c:e8:0e:e9:4e:80:58:74:53:51:2a:42:23:3c:
        29:de:3e:d6:ab:d4:e2:82:97:c6:c6:9c:2c:65:ff:78:29:9a:
        1e:cf:c0:6b:32:78:31:33:a4:d6:3e:0f:d6:d3:50:f9:b5:42:
        0b:aa:24:02:6b:0f:0c:fb:94:04:40:d7:a8:ac:29:04:16:5b:
        29:bf:bf:07:11:15:b3:40:95:5b:7b:9c:bf:c3:1a:5c:c7:02:
        7f:0a:75:e3:d9:9d:73:af:7b:e2:ef:15:8c:b3:2f:99:b6:d4:
        6f:7f:7a:9e:3a:5b:60:84:81:4f:8e:f7:09:1d:ad:c4:2e:04:
        ba:60:c5:5e:b9:0f:7d:8d:fc:af:e8:29:9a:8c:4c:7c:67:76:
        53:48:39:b5:1d:f2:e5:3e:48:02:a3:a7:9f:ff:2f:0a:05:9c:
        5f:38:07:55:c1:3b:c9:d9:79:f6:b8:8f:e0:a8:e1:d9:8a:f9:
        08:ce:40:66
-----BEGIN CERTIFICATE-----
MIIDFzCCAf+gAwIBAgIUSiuBAU5mO8/IcF/5jr8mMy7le3MwDQYJKoZIhvcNAQEL
BQAwGzEZMBcGA1UEAwwQcG9zdGdyZXMudGVtcC5qcjAeFw0yMjEyMDcwMzMzNTNa
Fw0yMzEyMDcwMzMzNTNaMBsxGTAXBgNVBAMMEHBvc3RncmVzLnRlbXAuanIwggEi
MA0GCSqGSIb3DQEBAQUAA4IBDwAwggEKAoIBAQDC7fK2NV/mq0SZ662pkbi3PKhA
LxK4PmkT7n7eFjD130CTu5imgHBKJUk2U4nXm7Ep1InOPY43F9coG3zipzcWzeck
/DltXv5OTv5VVIxTwM6RX+Glsx0FgvA6MMrhhdV9/stGTRTseWJs3YVcPKYRVH/6
5NUTegA8oelL3ZVHuWfSPaHWPzZbyBx6Rgryub3HLTXt7QSAEdsN0ftpmi6e7IqG
RR0ytsYO7fhqYsDIq/32Fu39XwzM5ABsDVW+3xxzc38iBHzGVs5cKmCcGzi9VqFE
ovFULxvXO5Gox5v9a9gvV1oua/GCL41ENIv4es0wTmz1r+Wswv2KzU+EnNuFAgMB
AAGjUzBRMB0GA1UdDgQWBBSzqouaj3Qyv3uo1QIT7tfNdEO/wTAfBgNVHSMEGDAW
gBSzqouaj3Qyv3uo1QIT7tfNdEO/wTAPBgNVHRMBAf8EBTADAQH/MA0GCSqGSIb3
DQEBCwUAA4IBAQCy/yasYUEd/aUcOcXrYFV07kteiLmcTI+w+z0wULKtmAhhVjHh
lY2ePk9vyAkHC2BlrSiWRUz2lYtfoz1Lnp6IPg2OarIAWUPve/feXOgO6U6AWHRT
USpCIzwp3j7Wq9TigpfGxpwsZf94KZoez8BrMngxM6TWPg/W01D5tUILqiQCaw8M
+5QEQNeorCkEFlspv78HERWzQJVbe5y/wxpcxwJ/CnXj2Z1zr3vi7xWMsy+ZttRv
f3qeOltghIFPjvcJHa3ELgS6YMVeuQ99jfyv6CmajEx8Z3ZTSDm1HfLlPkgCo6ef
/y8KBZxfOAdVwTvJ2Xn2uI/gqOHZivkIzkBm
-----END CERTIFICATE-----
