Certificate:
    Data:
        Version: 3 (0x2)
        Serial Number:
            4b:00:8d:92:d8:73:0c:ea:76:32:a1:8d:57:06:5f:d2:f6:ef:87:9c
        Signature Algorithm: sha256WithRSAEncryption
        Issuer: CN = postgres.temp.jr
        Validity
            Not Before: Dec  6 07:27:14 2022 GMT
            Not After : Dec  6 07:27:14 2023 GMT
        Subject: CN = postgres.temp.jr
        Subject Public Key Info:
            Public Key Algorithm: rsaEncryption
                Public-Key: (2048 bit)
                Modulus:
                    00:a5:b4:36:7a:7c:44:79:fe:37:c6:b8:2e:98:d5:
                    2a:12:fd:5f:96:d8:1b:aa:5f:43:73:60:93:14:fa:
                    5f:c6:b9:fd:9d:e1:a3:a3:43:c6:7f:e9:7c:0e:ef:
                    f1:e0:86:e2:cb:1d:b4:ce:10:ec:cc:4f:64:a8:ea:
                    e7:e9:be:eb:89:2e:55:9d:76:d4:f0:fb:76:ac:ac:
                    91:36:20:6c:68:b4:dc:1b:e8:ee:dd:09:da:be:fa:
                    8b:5c:35:e5:13:18:53:05:dd:d1:fd:55:fa:eb:9a:
                    29:e0:f4:a2:d1:0b:0a:8c:b4:c6:97:d0:19:2a:2e:
                    33:84:91:99:9f:9e:11:36:04:35:7d:4c:59:19:f9:
                    60:18:f7:13:c5:0c:0b:d1:63:de:be:84:8b:f9:4a:
                    3a:99:01:d8:1a:45:ab:37:be:00:e8:01:6e:d8:ee:
                    cd:1b:f8:05:73:45:2c:c8:95:2a:9e:23:e1:40:1f:
                    f5:39:f5:1e:d5:6f:f4:2e:07:01:b8:a4:54:29:d2:
                    8b:3f:74:e3:74:08:f5:c9:9c:28:c0:f8:91:16:bf:
                    35:10:9c:7a:70:54:c2:1c:be:e2:4f:67:d0:9e:98:
                    bf:00:45:e6:87:3e:06:c2:c3:5e:c2:39:e2:39:5c:
                    f5:3e:2f:6c:0c:95:fd:df:ff:b9:22:43:f3:ce:05:
                    08:61
                Exponent: 65537 (0x10001)
        X509v3 extensions:
            X509v3 Subject Key Identifier: 
                2B:14:26:66:A1:06:E5:42:C9:D6:79:AE:A6:78:C4:61:2B:3A:17:8E
            X509v3 Authority Key Identifier: 
                2B:14:26:66:A1:06:E5:42:C9:D6:79:AE:A6:78:C4:61:2B:3A:17:8E
            X509v3 Basic Constraints: critical
                CA:TRUE
    Signature Algorithm: sha256WithRSAEncryption
    Signature Value:
        75:83:89:9a:a3:e2:53:f8:43:67:9c:79:62:07:fd:22:65:96:
        86:f5:51:e1:1f:a7:1d:13:4d:58:77:e3:2b:af:87:aa:40:39:
        c6:e0:5b:bb:5f:3e:3c:9e:ed:cd:bc:ec:f0:87:a6:b9:5b:a2:
        fc:cd:01:84:32:e6:a2:8d:58:f8:fb:f3:9b:75:43:75:df:81:
        25:ed:c2:9b:db:00:9f:e5:b4:1f:a4:70:b4:1d:18:51:34:76:
        c8:d9:dc:59:51:a9:7d:5a:d6:f7:31:3c:0a:95:05:d9:dd:e1:
        b1:e5:7c:bc:0d:60:25:e1:7e:02:0f:1c:c5:e0:c3:f0:5d:2c:
        11:b2:e6:a6:c8:51:16:fc:06:5f:3f:77:0c:42:97:eb:35:b8:
        a4:ef:2b:af:b1:bb:0f:c9:c7:a9:f2:94:74:6f:3f:e9:8d:36:
        f6:20:ab:3e:ed:70:c6:60:7b:74:6d:32:b0:ff:db:5b:e1:d0:
        bc:f1:26:97:e6:41:21:dc:c1:a7:83:40:18:66:61:26:f3:52:
        fa:55:ef:49:00:19:49:28:75:64:54:f7:21:86:cb:26:82:37:
        38:66:14:e1:c9:e5:ce:ab:c1:50:38:64:bf:9b:64:b7:6e:3e:
        50:36:7a:a8:ba:3d:0b:d2:8b:80:99:dd:c0:be:a5:8a:9a:e0:
        d5:79:2e:db
-----BEGIN CERTIFICATE-----
MIIDFzCCAf+gAwIBAgIUSwCNkthzDOp2MqGNVwZf0vbvh5wwDQYJKoZIhvcNAQEL
BQAwGzEZMBcGA1UEAwwQcG9zdGdyZXMudGVtcC5qcjAeFw0yMjEyMDYwNzI3MTRa
Fw0yMzEyMDYwNzI3MTRaMBsxGTAXBgNVBAMMEHBvc3RncmVzLnRlbXAuanIwggEi
MA0GCSqGSIb3DQEBAQUAA4IBDwAwggEKAoIBAQCltDZ6fER5/jfGuC6Y1SoS/V+W
2BuqX0NzYJMU+l/Guf2d4aOjQ8Z/6XwO7/HghuLLHbTOEOzMT2So6ufpvuuJLlWd
dtTw+3asrJE2IGxotNwb6O7dCdq++otcNeUTGFMF3dH9Vfrrming9KLRCwqMtMaX
0BkqLjOEkZmfnhE2BDV9TFkZ+WAY9xPFDAvRY96+hIv5SjqZAdgaRas3vgDoAW7Y
7s0b+AVzRSzIlSqeI+FAH/U59R7Vb/QuBwG4pFQp0os/dON0CPXJnCjA+JEWvzUQ
nHpwVMIcvuJPZ9CemL8AReaHPgbCw17COeI5XPU+L2wMlf3f/7kiQ/POBQhhAgMB
AAGjUzBRMB0GA1UdDgQWBBQrFCZmoQblQsnWea6meMRhKzoXjjAfBgNVHSMEGDAW
gBQrFCZmoQblQsnWea6meMRhKzoXjjAPBgNVHRMBAf8EBTADAQH/MA0GCSqGSIb3
DQEBCwUAA4IBAQB1g4mao+JT+ENnnHliB/0iZZaG9VHhH6cdE01Yd+Mrr4eqQDnG
4Fu7Xz48nu3NvOzwh6a5W6L8zQGEMuaijVj4+/ObdUN134El7cKb2wCf5bQfpHC0
HRhRNHbI2dxZUal9Wtb3MTwKlQXZ3eGx5Xy8DWAl4X4CDxzF4MPwXSwRsuamyFEW
/AZfP3cMQpfrNbik7yuvsbsPycep8pR0bz/pjTb2IKs+7XDGYHt0bTKw/9tb4dC8
8SaX5kEh3MGng0AYZmEm81L6Ve9JABlJKHVkVPchhssmgjc4ZhThyeXOq8FQOGS/
m2S3bj5QNnqouj0L0ouAmd3AvqWKmuDVeS7b
-----END CERTIFICATE-----
